; Function Attrs: mustprogress nounwind uwtable
define void @ucasemap_close_77(ptr noundef %0) local_unnamed_addr #0 {
  %2 = icmp eq ptr %0, null
  br i1 %2, label %4, label %3

3:                                                ; preds = %1
  tail call void @_ZN8UCaseMapD1Ev(ptr noundef nonnull align 8 dereferenceable(48) %0) #17
  tail call void @_ZN6icu_777UMemorydlEPv(ptr noundef nonnull %0) #17
  br label %4

4:                                                ; preds = %3, %1
  ret void
}